; Function Attrs: nounwind uwtable
define void @Mf_ManPrintStats(ptr noundef readonly captures(none) %0, ptr noundef %1) local_unnamed_addr #0 {
  %3 = alloca %struct.timespec, align 8
  %4 = getelementptr inbounds nuw i8, ptr %0, i64 16
  %5 = load ptr, ptr %4, align 8, !tbaa !86
  %6 = getelementptr inbounds nuw i8, ptr %5, i64 136
  %7 = load i32, ptr %6, align 8, !tbaa !268
  %.not = icmp eq i32 %7, 0
  br i1 %.not, label %54, label %8

8:                                                ; preds = %2
  %9 = tail call i32 (ptr, ...) @printf(ptr noundef nonnull dereferenceable(1) @.str.9, ptr noundef %1)
  %10 = load ptr, ptr %4, align 8, !tbaa !86
  %11 = getelementptr inbounds nuw i8, ptr %10, i64 160
  %12 = load i64, ptr %11, align 8, !tbaa !208
  %13 = tail call i32 (ptr, ...) @printf(ptr noundef nonnull dereferenceable(1) @.str.10, i64 noundef %12)
  %14 = load ptr, ptr %4, align 8, !tbaa !86
  %15 = getelementptr inbounds nuw i8, ptr %14, i64 168
  %16 = load i64, ptr %15, align 8, !tbaa !213
  %17 = tail call i32 (ptr, ...) @printf(ptr noundef nonnull dereferenceable(1) @.str.11, i64 noundef %16)
  %18 = load ptr, ptr %4, align 8, !tbaa !86
  %19 = getelementptr inbounds nuw i8, ptr %18, i64 176
  %20 = load i64, ptr %19, align 8, !tbaa !212
  %21 = tail call i32 (ptr, ...) @printf(ptr noundef nonnull dereferenceable(1) @.str.12, i64 noundef %20)
  %22 = load ptr, ptr %4, align 8, !tbaa !86
  %23 = getelementptr inbounds nuw i8, ptr %22, i64 96
  %24 = load i32, ptr %23, align 8, !tbaa !151
  %.not10 = icmp eq i32 %24, 0
  br i1 %.not10, label %29, label %25

25:                                               ; preds = %8
  %26 = getelementptr inbounds nuw i8, ptr %22, i64 184
  %27 = load i64, ptr %26, align 8, !tbaa !214
  %28 = tail call i32 (ptr, ...) @printf(ptr noundef nonnull dereferenceable(1) @.str.13, i64 noundef %27)
  %.pre = load ptr, ptr %4, align 8, !tbaa !86
  br label %29

29:                                               ; preds = %25, %8
  %30 = phi ptr [ %.pre, %25 ], [ %22, %8 ]
  %31 = getelementptr inbounds nuw i8, ptr %30, i64 100
  %32 = load i32, ptr %31, align 4, !tbaa !152
  %.not11 = icmp eq i32 %32, 0
  br i1 %.not11, label %37, label %33

33:                                               ; preds = %29
  %34 = getelementptr inbounds nuw i8, ptr %30, i64 184
  %35 = load i64, ptr %34, align 8, !tbaa !214
  %36 = tail call i32 (ptr, ...) @printf(ptr noundef nonnull dereferenceable(1) @.str.14, i64 noundef %35)
  br label %37

37:                                               ; preds = %33, %29
  call void @llvm.lifetime.start.p0(i64 16, ptr nonnull %3) #29
  %38 = call i32 @clock_gettime(i32 noundef 1, ptr noundef nonnull %3) #29
  %39 = icmp slt i32 %38, 0
  br i1 %39, label %Abc_Clock.exit, label %40

40:                                               ; preds = %37
  %41 = load i64, ptr %3, align 8, !tbaa !248
  %42 = mul nsw i64 %41, 1000000
  %43 = getelementptr inbounds nuw i8, ptr %3, i64 8
  %44 = load i64, ptr %43, align 8, !tbaa !250
  %45 = sdiv i64 %44, 1000
  %46 = add nsw i64 %45, %42
  br label %Abc_Clock.exit

Abc_Clock.exit:                                   ; preds = %37, %40
  %.0.i = phi i64 [ %46, %40 ], [ -1, %37 ]
  call void @llvm.lifetime.end.p0(i64 16, ptr nonnull %3) #29
  %47 = getelementptr inbounds nuw i8, ptr %0, i64 120
  %48 = load i64, ptr %47, align 8, !tbaa !251
  %49 = sub nsw i64 %.0.i, %48
  call void (i32, ptr, ...) @Abc_Print(i32 noundef 1, ptr noundef nonnull @.str.60, ptr noundef nonnull @.str.15)
  %50 = sitofp i64 %49 to double
  %51 = fdiv double %50, 1.000000e+06
  call void (i32, ptr, ...) @Abc_Print(i32 noundef 1, ptr noundef nonnull @.str.61, double noundef %51)
  %52 = load ptr, ptr @stdout, align 8, !tbaa !217
  %53 = call i32 @fflush(ptr noundef %52)
  br label %54

54:                                               ; preds = %2, %Abc_Clock.exit
  ret void
}